target datalayout = "e-m:e-p270:32:32-p271:32:32-p272:64:64-i64:64-i128:128-f80:128-n8:16:32:64-S128"
target triple = "x86_64-pc-linux-gnu"

%struct.ImRect = type { %struct.ImVec2, %struct.ImVec2 }
%struct.ImVec2 = type { float, float }
%struct.ImGuiTextBuffer = type { %struct.ImVector.28 }
%struct.ImVector.28 = type { i32, i32, ptr }
%struct.ImGuiTableInstanceData = type { i32, float, float, float, i32, i32 }
%struct.ImGuiTableColumn = type <{ i32, float, float, float, float, float, float, float, float, %struct.ImRect, i32, float, float, float, float, float, float, float, i16, i16, i16, i16, i16, i16, i16, i16, i16, i8, i8, i8, i8, i8, i8, i8, i8, i8, i8, i8, i8, i8, i8 }>
%struct.ImGuiTable = type <{ i32, i32, ptr, ptr, %struct.ImSpan, %struct.ImSpan.41, %struct.ImSpan.42, ptr, ptr, ptr, i32, i32, i32, i32, i32, i32, i16, i16, float, float, float, float, float, float, i32, i32, [2 x i32], i32, i32, float, float, float, float, float, float, float, float, float, float, float, float, float, float, float, float, float, %struct.ImRect, %struct.ImRect, %struct.ImRect, %struct.ImRect, %struct.ImRect, %struct.ImRect, %struct.ImRect, %struct.ImRect, %struct.ImRect, ptr, ptr, %struct.ImGuiTextBuffer, ptr, %struct.ImGuiTableInstanceData, %struct.ImVector.43, %struct.ImGuiTableColumnSortSpecs, [4 x i8], %struct.ImVector.44, %struct.ImGuiTableSortSpecs, i16, i16, i16, i16, i16, i16, i16, i16, i16, i16, i16, i16, i16, i16, i16, i16, i16, i16, i16, i16, i16, i16, i16, i16, i16, i16, i16, i8, i8, i8, i8, i8, i8, i8, i8, i8, i8, i8, i8, i8, i8, i8, i8, i8, i8, i8, i8, [6 x i8] }>
%struct.ImSpan = type { ptr, ptr }
%struct.ImSpan.41 = type { ptr, ptr }
%struct.ImSpan.42 = type { ptr, ptr }
%struct.ImVector.43 = type { i32, i32, ptr }
%struct.ImGuiTableColumnSortSpecs = type <{ i32, i16, i16, i8, [3 x i8] }>
%struct.ImVector.44 = type { i32, i32, ptr }
%struct.ImGuiTableSortSpecs = type <{ ptr, i32, i8, [3 x i8] }>

; Function Attrs: inlinehint mustprogress nounwind uwtable
define linkonce_odr dso_local noundef nonnull align 4 dereferenceable(115) ptr @_ZNK6ImSpanI16ImGuiTableColumnEixEi(ptr noundef nonnull align 8 dereferenceable(16) %0, i32 noundef %1) #4 comdat align 2 {
  %3 = alloca ptr, align 8
  %4 = alloca i32, align 4
  %5 = alloca ptr, align 8
  store ptr %0, ptr %3, align 8, !tbaa !335
  store i32 %1, ptr %4, align 4, !tbaa !4
  %6 = load ptr, ptr %3, align 8
  call void @llvm.lifetime.start.p0(i64 8, ptr %5) #8
  %7 = getelementptr inbounds nuw %struct.ImSpan, ptr %6, i32 0, i32 0
  %8 = load ptr, ptr %7, align 8, !tbaa !338
  %9 = load i32, ptr %4, align 4, !tbaa !4
  %10 = sext i32 %9 to i64
  %11 = getelementptr inbounds %struct.ImGuiTableColumn, ptr %8, i64 %10
  store ptr %11, ptr %5, align 8, !tbaa !259
  %12 = load ptr, ptr %5, align 8, !tbaa !259
  call void @llvm.lifetime.end.p0(i64 8, ptr %5) #8
  ret ptr %12
}

; Function Attrs: mustprogress uwtable
define dso_local noundef float @_ZN5ImGui23TableCalcMaxColumnWidthEPK10ImGuiTablei(ptr noundef %0, i32 noundef %1) #0 {
  %3 = alloca ptr, align 8
  %4 = alloca i32, align 4
  %5 = alloca ptr, align 8
  %6 = alloca float, align 4
  %7 = alloca float, align 4
  store ptr %0, ptr %3, align 8, !tbaa !166
  store i32 %1, ptr %4, align 4, !tbaa !4
  call void @llvm.lifetime.start.p0(i64 8, ptr %5) #8
  %8 = load ptr, ptr %3, align 8, !tbaa !166
  %9 = getelementptr inbounds nuw %struct.ImGuiTable, ptr %8, i32 0, i32 4
  %10 = load i32, ptr %4, align 4, !tbaa !4
  %11 = call noundef nonnull align 4 dereferenceable(115) ptr @_ZNK6ImSpanI16ImGuiTableColumnEixEi(ptr noundef nonnull align 8 dereferenceable(16) %9, i32 noundef %10)
  store ptr %11, ptr %5, align 8, !tbaa !259
  call void @llvm.lifetime.start.p0(i64 4, ptr %6) #8
  store float 0x47EFFFFFE0000000, ptr %6, align 4, !tbaa !17
  call void @llvm.lifetime.start.p0(i64 4, ptr %7) #8
  %12 = load ptr, ptr %3, align 8, !tbaa !166
  %13 = getelementptr inbounds nuw %struct.ImGuiTable, ptr %12, i32 0, i32 32
  %14 = load float, ptr %13, align 8, !tbaa !396
  %15 = load ptr, ptr %3, align 8, !tbaa !166
  %16 = getelementptr inbounds nuw %struct.ImGuiTable, ptr %15, i32 0, i32 34
  %17 = load float, ptr %16, align 8, !tbaa !227
  %18 = fmul float %17, 2.000000e+00
  %19 = fadd float %14, %18
  %20 = load ptr, ptr %3, align 8, !tbaa !166
  %21 = getelementptr inbounds nuw %struct.ImGuiTable, ptr %20, i32 0, i32 35
  %22 = load float, ptr %21, align 4, !tbaa !225
  %23 = fadd float %19, %22
  %24 = load ptr, ptr %3, align 8, !tbaa !166
  %25 = getelementptr inbounds nuw %struct.ImGuiTable, ptr %24, i32 0, i32 36
  %26 = load float, ptr %25, align 8, !tbaa !226
  %27 = fadd float %23, %26
  store float %27, ptr %7, align 4, !tbaa !17
  %28 = load ptr, ptr %3, align 8, !tbaa !166
  %29 = getelementptr inbounds nuw %struct.ImGuiTable, ptr %28, i32 0, i32 1
  %30 = load i32, ptr %29, align 4, !tbaa !195
  %31 = and i32 %30, 16777216
  %32 = icmp ne i32 %31, 0
  br i1 %32, label %33, label %80

33:                                               ; preds = %2
  %34 = load ptr, ptr %5, align 8, !tbaa !259
  %35 = getelementptr inbounds nuw %struct.ImGuiTableColumn, ptr %34, i32 0, i32 19
  %36 = load i16, ptr %35, align 2, !tbaa !285
  %37 = sext i16 %36 to i32
  %38 = load ptr, ptr %3, align 8, !tbaa !166
  %39 = getelementptr inbounds nuw %struct.ImGuiTable, ptr %38, i32 0, i32 86
  %40 = load i16, ptr %39, align 2, !tbaa !242
  %41 = sext i16 %40 to i32
  %42 = icmp slt i32 %37, %41
  br i1 %42, label %43, label %79

43:                                               ; preds = %33
  %44 = load ptr, ptr %3, align 8, !tbaa !166
  %45 = getelementptr inbounds nuw %struct.ImGuiTable, ptr %44, i32 0, i32 49
  %46 = getelementptr inbounds nuw %struct.ImRect, ptr %45, i32 0, i32 1
  %47 = getelementptr inbounds nuw %struct.ImVec2, ptr %46, i32 0, i32 0
  %48 = load float, ptr %47, align 8, !tbaa !450
  %49 = load ptr, ptr %3, align 8, !tbaa !166
  %50 = getelementptr inbounds nuw %struct.ImGuiTable, ptr %49, i32 0, i32 86
  %51 = load i16, ptr %50, align 2, !tbaa !242
  %52 = sext i16 %51 to i32
  %53 = load ptr, ptr %5, align 8, !tbaa !259
  %54 = getelementptr inbounds nuw %struct.ImGuiTableColumn, ptr %53, i32 0, i32 19
  %55 = load i16, ptr %54, align 2, !tbaa !285
  %56 = sext i16 %55 to i32
  %57 = sub nsw i32 %52, %56
  %58 = sitofp i32 %57 to float
  %59 = load float, ptr %7, align 4, !tbaa !17
  %60 = fmul float %58, %59
  %61 = fsub float %48, %60
  %62 = load ptr, ptr %5, align 8, !tbaa !259
  %63 = getelementptr inbounds nuw %struct.ImGuiTableColumn, ptr %62, i32 0, i32 2
  %64 = load float, ptr %63, align 4, !tbaa !433
  %65 = fsub float %61, %64
  store float %65, ptr %6, align 4, !tbaa !17
  %66 = load float, ptr %6, align 4, !tbaa !17
  %67 = load ptr, ptr %3, align 8, !tbaa !166
  %68 = getelementptr inbounds nuw %struct.ImGuiTable, ptr %67, i32 0, i32 33
  %69 = load float, ptr %68, align 4, !tbaa !228
  %70 = fsub float %66, %69
  %71 = load ptr, ptr %3, align 8, !tbaa !166
  %72 = getelementptr inbounds nuw %struct.ImGuiTable, ptr %71, i32 0, i32 34
  %73 = load float, ptr %72, align 8, !tbaa !227
  %74 = fsub float %70, %73
  %75 = load ptr, ptr %3, align 8, !tbaa !166
  %76 = getelementptr inbounds nuw %struct.ImGuiTable, ptr %75, i32 0, i32 36
  %77 = load float, ptr %76, align 8, !tbaa !226
  %78 = fsub float %74, %77
  store float %78, ptr %6, align 4, !tbaa !17
  br label %79

79:                                               ; preds = %43, %33
  br label %127

80:                                               ; preds = %2
  %81 = load ptr, ptr %3, align 8, !tbaa !166
  %82 = getelementptr inbounds nuw %struct.ImGuiTable, ptr %81, i32 0, i32 1
  %83 = load i32, ptr %82, align 4, !tbaa !195
  %84 = and i32 %83, 262144
  %85 = icmp eq i32 %84, 0
  br i1 %85, label %86, label %126

86:                                               ; preds = %80
  %87 = load ptr, ptr %3, align 8, !tbaa !166
  %88 = getelementptr inbounds nuw %struct.ImGuiTable, ptr %87, i32 0, i32 48
  %89 = getelementptr inbounds nuw %struct.ImRect, ptr %88, i32 0, i32 1
  %90 = getelementptr inbounds nuw %struct.ImVec2, ptr %89, i32 0, i32 0
  %91 = load float, ptr %90, align 8, !tbaa !449
  %92 = load ptr, ptr %3, align 8, !tbaa !166
  %93 = getelementptr inbounds nuw %struct.ImGuiTable, ptr %92, i32 0, i32 66
  %94 = load i16, ptr %93, align 2, !tbaa !402
  %95 = sext i16 %94 to i32
  %96 = load ptr, ptr %5, align 8, !tbaa !259
  %97 = getelementptr inbounds nuw %struct.ImGuiTableColumn, ptr %96, i32 0, i32 20
  %98 = load i16, ptr %97, align 4, !tbaa !347
  %99 = sext i16 %98 to i32
  %100 = sub nsw i32 %95, %99
  %101 = sub nsw i32 %100, 1
  %102 = sitofp i32 %101 to float
  %103 = load float, ptr %7, align 4, !tbaa !17
  %104 = fmul float %102, %103
  %105 = fsub float %91, %104
  %106 = load ptr, ptr %5, align 8, !tbaa !259
  %107 = getelementptr inbounds nuw %struct.ImGuiTableColumn, ptr %106, i32 0, i32 2
  %108 = load float, ptr %107, align 4, !tbaa !433
  %109 = fsub float %105, %108
  store float %109, ptr %6, align 4, !tbaa !17
  %110 = load ptr, ptr %3, align 8, !tbaa !166
  %111 = getelementptr inbounds nuw %struct.ImGuiTable, ptr %110, i32 0, i32 36
  %112 = load float, ptr %111, align 8, !tbaa !226
  %113 = load float, ptr %6, align 4, !tbaa !17
  %114 = fsub float %113, %112
  store float %114, ptr %6, align 4, !tbaa !17
  %115 = load ptr, ptr %3, align 8, !tbaa !166
  %116 = getelementptr inbounds nuw %struct.ImGuiTable, ptr %115, i32 0, i32 34
  %117 = load float, ptr %116, align 8, !tbaa !227
  %118 = fmul float %117, 2.000000e+00
  %119 = load float, ptr %6, align 4, !tbaa !17
  %120 = fsub float %119, %118
  store float %120, ptr %6, align 4, !tbaa !17
  %121 = load ptr, ptr %3, align 8, !tbaa !166
  %122 = getelementptr inbounds nuw %struct.ImGuiTable, ptr %121, i32 0, i32 33
  %123 = load float, ptr %122, align 4, !tbaa !228
  %124 = load float, ptr %6, align 4, !tbaa !17
  %125 = fsub float %124, %123
  store float %125, ptr %6, align 4, !tbaa !17
  br label %126

126:                                              ; preds = %86, %80
  br label %127

127:                                              ; preds = %126, %79
  %128 = load float, ptr %6, align 4, !tbaa !17
  call void @llvm.lifetime.end.p0(i64 4, ptr %7) #8
  call void @llvm.lifetime.end.p0(i64 4, ptr %6) #8
  call void @llvm.lifetime.end.p0(i64 8, ptr %5) #8
  ret float %128
}