; Function Attrs: mustprogress nofree norecurse nosync nounwind willreturn memory(read, inaccessiblemem: none) uwtable
define dso_local noundef float @_ZN5ImGui23TableCalcMaxColumnWidthEPK10ImGuiTablei(ptr noundef readonly captures(none) %0, i32 noundef %1) local_unnamed_addr #12 {
  %3 = getelementptr inbounds nuw i8, ptr %0, i64 24
  %4 = load ptr, ptr %3, align 8, !tbaa !271
  %5 = sext i32 %1 to i64
  %6 = getelementptr inbounds %struct.ImGuiTableColumn, ptr %4, i64 %5
  %7 = getelementptr inbounds nuw i8, ptr %0, i64 184
  %8 = load float, ptr %7, align 8, !tbaa !348
  %9 = getelementptr inbounds nuw i8, ptr %0, i64 192
  %10 = load float, ptr %9, align 8, !tbaa !240
  %11 = fmul float %10, 2.000000e+00
  %12 = fadd float %8, %11
  %13 = getelementptr inbounds nuw i8, ptr %0, i64 196
  %14 = load float, ptr %13, align 4, !tbaa !238
  %15 = fadd float %14, %12
  %16 = getelementptr inbounds nuw i8, ptr %0, i64 200
  %17 = load float, ptr %16, align 8, !tbaa !239
  %18 = fadd float %17, %15
  %19 = getelementptr inbounds nuw i8, ptr %0, i64 4
  %20 = load i32, ptr %19, align 4, !tbaa !203
  %21 = and i32 %20, 16777216
  %.not = icmp eq i32 %21, 0
  br i1 %.not, label %45, label %22

22:                                               ; preds = %2
  %23 = getelementptr inbounds nuw i8, ptr %6, i64 86
  %24 = load i16, ptr %23, align 2, !tbaa !308
  %25 = getelementptr inbounds nuw i8, ptr %0, i64 554
  %26 = load i16, ptr %25, align 2, !tbaa !403
  %27 = icmp slt i16 %24, %26
  br i1 %27, label %28, label %70

28:                                               ; preds = %22
  %29 = sext i16 %26 to i32
  %30 = sext i16 %24 to i32
  %31 = getelementptr inbounds nuw i8, ptr %0, i64 296
  %32 = load float, ptr %31, align 8, !tbaa !404
  %33 = sub nsw i32 %29, %30
  %34 = sitofp i32 %33 to float
  %35 = fmul float %18, %34
  %36 = fsub float %32, %35
  %37 = getelementptr inbounds nuw i8, ptr %6, i64 8
  %38 = load float, ptr %37, align 4, !tbaa !398
  %39 = fsub float %36, %38
  %40 = getelementptr inbounds nuw i8, ptr %0, i64 188
  %41 = load float, ptr %40, align 4, !tbaa !241
  %42 = fsub float %39, %41
  %43 = fsub float %42, %10
  %44 = fsub float %43, %17
  br label %70

45:                                               ; preds = %2
  %46 = and i32 %20, 262144
  %47 = icmp eq i32 %46, 0
  br i1 %47, label %48, label %70

48:                                               ; preds = %45
  %49 = getelementptr inbounds nuw i8, ptr %0, i64 280
  %50 = load float, ptr %49, align 8, !tbaa !405
  %51 = getelementptr inbounds nuw i8, ptr %0, i64 514
  %52 = load i16, ptr %51, align 2, !tbaa !359
  %53 = sext i16 %52 to i32
  %54 = getelementptr inbounds nuw i8, ptr %6, i64 88
  %55 = load i16, ptr %54, align 4, !tbaa !366
  %56 = xor i16 %55, -1
  %57 = sext i16 %56 to i32
  %58 = add nsw i32 %57, %53
  %59 = sitofp i32 %58 to float
  %60 = fmul float %18, %59
  %61 = fsub float %50, %60
  %62 = getelementptr inbounds nuw i8, ptr %6, i64 8
  %63 = load float, ptr %62, align 4, !tbaa !398
  %64 = fsub float %61, %63
  %65 = fsub float %64, %17
  %66 = fsub float %65, %11
  %67 = getelementptr inbounds nuw i8, ptr %0, i64 188
  %68 = load float, ptr %67, align 4, !tbaa !241
  %69 = fsub float %66, %68
  br label %70

70:                                               ; preds = %45, %48, %22, %28
  %.0 = phi float [ %44, %28 ], [ 0x47EFFFFFE0000000, %22 ], [ %69, %48 ], [ 0x47EFFFFFE0000000, %45 ]
  ret float %.0
}